; ModuleID = '7/985.c'
source_filename = "7/985.c"
target datalayout = "e-m:e-p270:32:32-p271:32:32-p272:64:64-i64:64-f80:128-n8:16:32:64-S128"
target triple = "x86_64-pc-linux-gnu"

; Function Attrs: noinline nounwind uwtable
define dso_local i32 @main() #0 {
  %1 = alloca i32, align 4
  %2 = alloca i8*, align 8
  %3 = alloca i8*, align 8
  %4 = alloca i8*, align 8
  %5 = alloca i32, align 4
  %6 = alloca i32, align 4
  %7 = alloca i32, align 4
  %8 = alloca i32, align 4
  store i32 0, i32* %1, align 4
  %9 = call noalias i8* @malloc(i64 256) #4
  store i8* %9, i8** %2, align 8
  %10 = call noalias i8* @malloc(i64 256) #4
  store i8* %10, i8** %3, align 8
  %11 = call noalias i8* @malloc(i64 256) #4
  store i8* %11, i8** %4, align 8
  store i32 0, i32* %8, align 4
  %12 = load i8*, i8** %2, align 8
  %13 = call i32 (i8*, ...) bitcast (i32 (...)* @gets to i32 (i8*, ...)*)(i8* %12)
  %14 = load i8*, i8** %3, align 8
  %15 = call i32 (i8*, ...) bitcast (i32 (...)* @gets to i32 (i8*, ...)*)(i8* %14)
  %16 = load i8*, i8** %4, align 8
  %17 = call i32 (i8*, ...) bitcast (i32 (...)* @gets to i32 (i8*, ...)*)(i8* %16)
  store i32 0, i32* %5, align 4
  br label %18

18:                                               ; preds = %174, %0
  %19 = load i8*, i8** %2, align 8
  %20 = load i32, i32* %5, align 4
  %21 = sext i32 %20 to i64
  %22 = getelementptr inbounds i8, i8* %19, i64 %21
  %23 = load i8, i8* %22, align 1
  %24 = sext i8 %23 to i32
  %25 = icmp ne i32 %24, 0
  br i1 %25, label %26, label %177

26:                                               ; preds = %18
  %27 = load i32, i32* %5, align 4
  store i32 %27, i32* %6, align 4
  store i32 0, i32* %7, align 4
  br label %28

28:                                               ; preds = %61, %26
  %29 = load i8*, i8** %2, align 8
  %30 = load i32, i32* %6, align 4
  %31 = sext i32 %30 to i64
  %32 = getelementptr inbounds i8, i8* %29, i64 %31
  %33 = load i8, i8* %32, align 1
  %34 = sext i8 %33 to i32
  %35 = icmp ne i32 %34, 0
  br i1 %35, label %36, label %58

36:                                               ; preds = %28
  %37 = load i8*, i8** %3, align 8
  %38 = load i32, i32* %7, align 4
  %39 = sext i32 %38 to i64
  %40 = getelementptr inbounds i8, i8* %37, i64 %39
  %41 = load i8, i8* %40, align 1
  %42 = sext i8 %41 to i32
  %43 = icmp ne i32 %42, 0
  br i1 %43, label %44, label %58

44:                                               ; preds = %36
  %45 = load i8*, i8** %2, align 8
  %46 = load i32, i32* %6, align 4
  %47 = sext i32 %46 to i64
  %48 = getelementptr inbounds i8, i8* %45, i64 %47
  %49 = load i8, i8* %48, align 1
  %50 = sext i8 %49 to i32
  %51 = load i8*, i8** %3, align 8
  %52 = load i32, i32* %7, align 4
  %53 = sext i32 %52 to i64
  %54 = getelementptr inbounds i8, i8* %51, i64 %53
  %55 = load i8, i8* %54, align 1
  %56 = sext i8 %55 to i32
  %57 = icmp eq i32 %50, %56
  br label %58

58:                                               ; preds = %44, %36, %28
  %59 = phi i1 [ false, %36 ], [ false, %28 ], [ %57, %44 ]
  br i1 %59, label %60, label %66

60:                                               ; preds = %58
  br label %61

61:                                               ; preds = %60
  %62 = load i32, i32* %6, align 4
  %63 = add nsw i32 %62, 1
  store i32 %63, i32* %6, align 4
  %64 = load i32, i32* %7, align 4
  %65 = add nsw i32 %64, 1
  store i32 %65, i32* %7, align 4
  br label %28

66:                                               ; preds = %58
  %67 = load i32, i32* %7, align 4
  %68 = sext i32 %67 to i64
  %69 = load i8*, i8** %3, align 8
  %70 = call i64 @strlen(i8* %69) #5
  %71 = icmp eq i64 %68, %70
  br i1 %71, label %72, label %169

72:                                               ; preds = %66
  %73 = load i32, i32* %5, align 4
  store i32 %73, i32* %6, align 4
  %74 = load i32, i32* %6, align 4
  %75 = sext i32 %74 to i64
  %76 = load i8*, i8** %3, align 8
  %77 = call i64 @strlen(i8* %76) #5
  %78 = add i64 %75, %77
  %79 = trunc i64 %78 to i32
  store i32 %79, i32* %7, align 4
  br label %80

80:                                               ; preds = %96, %72
  %81 = load i32, i32* %7, align 4
  %82 = sext i32 %81 to i64
  %83 = load i8*, i8** %2, align 8
  %84 = call i64 @strlen(i8* %83) #5
  %85 = icmp ult i64 %82, %84
  br i1 %85, label %86, label %101

86:                                               ; preds = %80
  %87 = load i8*, i8** %2, align 8
  %88 = load i32, i32* %7, align 4
  %89 = sext i32 %88 to i64
  %90 = getelementptr inbounds i8, i8* %87, i64 %89
  %91 = load i8, i8* %90, align 1
  %92 = load i8*, i8** %2, align 8
  %93 = load i32, i32* %6, align 4
  %94 = sext i32 %93 to i64
  %95 = getelementptr inbounds i8, i8* %92, i64 %94
  store i8 %91, i8* %95, align 1
  br label %96

96:                                               ; preds = %86
  %97 = load i32, i32* %7, align 4
  %98 = add nsw i32 %97, 1
  store i32 %98, i32* %7, align 4
  %99 = load i32, i32* %6, align 4
  %100 = add nsw i32 %99, 1
  store i32 %100, i32* %6, align 4
  br label %80

101:                                              ; preds = %80
  %102 = load i8*, i8** %2, align 8
  %103 = load i32, i32* %6, align 4
  %104 = sext i32 %103 to i64
  %105 = getelementptr inbounds i8, i8* %102, i64 %104
  %106 = load i8*, i8** %4, align 8
  %107 = call i64 @strlen(i8* %106) #5
  %108 = getelementptr inbounds i8, i8* %105, i64 %107
  store i8 0, i8* %108, align 1
  %109 = load i32, i32* %6, align 4
  %110 = add nsw i32 %109, -1
  store i32 %110, i32* %6, align 4
  %111 = sext i32 %110 to i64
  %112 = load i8*, i8** %4, align 8
  %113 = call i64 @strlen(i8* %112) #5
  %114 = add i64 %111, %113
  %115 = trunc i64 %114 to i32
  store i32 %115, i32* %6, align 4
  %116 = load i32, i32* %6, align 4
  %117 = sext i32 %116 to i64
  %118 = load i8*, i8** %4, align 8
  %119 = call i64 @strlen(i8* %118) #5
  %120 = sub i64 %117, %119
  %121 = trunc i64 %120 to i32
  store i32 %121, i32* %7, align 4
  br label %122

122:                                              ; preds = %136, %101
  %123 = load i32, i32* %7, align 4
  %124 = load i32, i32* %5, align 4
  %125 = icmp sge i32 %123, %124
  br i1 %125, label %126, label %141

126:                                              ; preds = %122
  %127 = load i8*, i8** %2, align 8
  %128 = load i32, i32* %7, align 4
  %129 = sext i32 %128 to i64
  %130 = getelementptr inbounds i8, i8* %127, i64 %129
  %131 = load i8, i8* %130, align 1
  %132 = load i8*, i8** %2, align 8
  %133 = load i32, i32* %6, align 4
  %134 = sext i32 %133 to i64
  %135 = getelementptr inbounds i8, i8* %132, i64 %134
  store i8 %131, i8* %135, align 1
  br label %136

136:                                              ; preds = %126
  %137 = load i32, i32* %6, align 4
  %138 = add nsw i32 %137, -1
  store i32 %138, i32* %6, align 4
  %139 = load i32, i32* %7, align 4
  %140 = add nsw i32 %139, -1
  store i32 %140, i32* %7, align 4
  br label %122

141:                                              ; preds = %122
  %142 = load i32, i32* %5, align 4
  store i32 %142, i32* %6, align 4
  store i32 0, i32* %7, align 4
  br label %143

143:                                              ; preds = %161, %141
  %144 = load i8*, i8** %4, align 8
  %145 = load i32, i32* %7, align 4
  %146 = sext i32 %145 to i64
  %147 = getelementptr inbounds i8, i8* %144, i64 %146
  %148 = load i8, i8* %147, align 1
  %149 = sext i8 %148 to i32
  %150 = icmp ne i32 %149, 0
  br i1 %150, label %151, label %166

151:                                              ; preds = %143
  %152 = load i8*, i8** %4, align 8
  %153 = load i32, i32* %7, align 4
  %154 = sext i32 %153 to i64
  %155 = getelementptr inbounds i8, i8* %152, i64 %154
  %156 = load i8, i8* %155, align 1
  %157 = load i8*, i8** %2, align 8
  %158 = load i32, i32* %6, align 4
  %159 = sext i32 %158 to i64
  %160 = getelementptr inbounds i8, i8* %157, i64 %159
  store i8 %156, i8* %160, align 1
  br label %161

161:                                              ; preds = %151
  %162 = load i32, i32* %6, align 4
  %163 = add nsw i32 %162, 1
  store i32 %163, i32* %6, align 4
  %164 = load i32, i32* %7, align 4
  %165 = add nsw i32 %164, 1
  store i32 %165, i32* %7, align 4
  br label %143

166:                                              ; preds = %143
  %167 = load i32, i32* %8, align 4
  %168 = add nsw i32 %167, 1
  store i32 %168, i32* %8, align 4
  br label %169

169:                                              ; preds = %166, %66
  %170 = load i32, i32* %8, align 4
  %171 = icmp ne i32 %170, 0
  br i1 %171, label %172, label %173

172:                                              ; preds = %169
  br label %177

173:                                              ; preds = %169
  br label %174

174:                                              ; preds = %173
  %175 = load i32, i32* %5, align 4
  %176 = add nsw i32 %175, 1
  store i32 %176, i32* %5, align 4
  br label %18

177:                                              ; preds = %172, %18
  %178 = load i8*, i8** %2, align 8
  %179 = call i32 @puts(i8* %178)
  %180 = load i32, i32* %1, align 4
  ret i32 %180
}

; Function Attrs: nounwind
declare dso_local noalias i8* @malloc(i64) #1

declare dso_local i32 @gets(...) #2

; Function Attrs: nounwind readonly
declare dso_local i64 @strlen(i8*) #3

declare dso_local i32 @puts(i8*) #2


!llvm.module.flags = !{!0}
!llvm.ident = !{!1}

!0 = !{i32 1, !"wchar_size", i32 4}
!1 = !{!"clang version 10.0.0-4ubuntu1 "}
